ARM GAS  C:\Users\admin\AppData\Local\Temp\ccsVakyk.s 			page 1


   1              		.cpu cortex-m7
   2              		.arch armv7e-m
   3              		.fpu fpv5-d16
   4              		.eabi_attribute 28, 1
   5              		.eabi_attribute 20, 1
   6              		.eabi_attribute 21, 1
   7              		.eabi_attribute 23, 3
   8              		.eabi_attribute 24, 1
   9              		.eabi_attribute 25, 1
  10              		.eabi_attribute 26, 1
  11              		.eabi_attribute 30, 1
  12              		.eabi_attribute 34, 1
  13              		.eabi_attribute 18, 4
  14              		.file	"main.c"
  15              		.text
  16              	.Ltext0:
  17              		.cfi_sections	.debug_frame
  18              		.section	.text.MPU_Config,"ax",%progbits
  19              		.align	1
  20              		.syntax unified
  21              		.thumb
  22              		.thumb_func
  24              	MPU_Config:
  25              	.LFB150:
  26              		.file 1 "Core/Src/main.c"
   1:Core/Src/main.c **** /* USER CODE BEGIN Header */
   2:Core/Src/main.c **** /**
   3:Core/Src/main.c ****   ******************************************************************************
   4:Core/Src/main.c ****   * @file           : main.c
   5:Core/Src/main.c ****   * @brief          : Main program body
   6:Core/Src/main.c ****   ******************************************************************************
   7:Core/Src/main.c ****   * @attention
   8:Core/Src/main.c ****   *
   9:Core/Src/main.c ****   * Copyright (c) 2024 STMicroelectronics.
  10:Core/Src/main.c ****   * All rights reserved.
  11:Core/Src/main.c ****   *
  12:Core/Src/main.c ****   * This software is licensed under terms that can be found in the LICENSE file
  13:Core/Src/main.c ****   * in the root directory of this software component.
  14:Core/Src/main.c ****   * If no LICENSE file comes with this software, it is provided AS-IS.
  15:Core/Src/main.c ****   *
  16:Core/Src/main.c ****   ******************************************************************************
  17:Core/Src/main.c ****   */
  18:Core/Src/main.c **** /* USER CODE END Header */
  19:Core/Src/main.c **** /* Includes ------------------------------------------------------------------*/
  20:Core/Src/main.c **** #include "main.h"
  21:Core/Src/main.c **** #include "cmsis_os.h"
  22:Core/Src/main.c **** #include "gpio.h"
  23:Core/Src/main.c **** 
  24:Core/Src/main.c **** /* Private includes ----------------------------------------------------------*/
  25:Core/Src/main.c **** /* USER CODE BEGIN Includes */
  26:Core/Src/main.c **** 
  27:Core/Src/main.c **** /* USER CODE END Includes */
  28:Core/Src/main.c **** 
  29:Core/Src/main.c **** /* Private typedef -----------------------------------------------------------*/
  30:Core/Src/main.c **** /* USER CODE BEGIN PTD */
  31:Core/Src/main.c **** 
  32:Core/Src/main.c **** /* USER CODE END PTD */
ARM GAS  C:\Users\admin\AppData\Local\Temp\ccsVakyk.s 			page 2


  33:Core/Src/main.c **** 
  34:Core/Src/main.c **** /* Private define ------------------------------------------------------------*/
  35:Core/Src/main.c **** /* USER CODE BEGIN PD */
  36:Core/Src/main.c **** 
  37:Core/Src/main.c **** /* USER CODE END PD */
  38:Core/Src/main.c **** 
  39:Core/Src/main.c **** /* Private macro -------------------------------------------------------------*/
  40:Core/Src/main.c **** /* USER CODE BEGIN PM */
  41:Core/Src/main.c **** 
  42:Core/Src/main.c **** /* USER CODE END PM */
  43:Core/Src/main.c **** 
  44:Core/Src/main.c **** /* Private variables ---------------------------------------------------------*/
  45:Core/Src/main.c **** 
  46:Core/Src/main.c **** /* USER CODE BEGIN PV */
  47:Core/Src/main.c **** 
  48:Core/Src/main.c **** /* USER CODE END PV */
  49:Core/Src/main.c **** 
  50:Core/Src/main.c **** /* Private function prototypes -----------------------------------------------*/
  51:Core/Src/main.c **** void SystemClock_Config(void);
  52:Core/Src/main.c **** static void MPU_Config(void);
  53:Core/Src/main.c **** void MX_FREERTOS_Init(void);
  54:Core/Src/main.c **** /* USER CODE BEGIN PFP */
  55:Core/Src/main.c **** 
  56:Core/Src/main.c **** /* USER CODE END PFP */
  57:Core/Src/main.c **** 
  58:Core/Src/main.c **** /* Private user code ---------------------------------------------------------*/
  59:Core/Src/main.c **** /* USER CODE BEGIN 0 */
  60:Core/Src/main.c **** 
  61:Core/Src/main.c **** /* USER CODE END 0 */
  62:Core/Src/main.c **** 
  63:Core/Src/main.c **** /**
  64:Core/Src/main.c ****   * @brief  The application entry point.
  65:Core/Src/main.c ****   * @retval int
  66:Core/Src/main.c ****   */
  67:Core/Src/main.c **** int main(void)
  68:Core/Src/main.c **** {
  69:Core/Src/main.c **** 
  70:Core/Src/main.c ****   /* USER CODE BEGIN 1 */
  71:Core/Src/main.c **** 
  72:Core/Src/main.c ****   /* USER CODE END 1 */
  73:Core/Src/main.c **** 
  74:Core/Src/main.c ****   /* MPU Configuration--------------------------------------------------------*/
  75:Core/Src/main.c ****   MPU_Config();
  76:Core/Src/main.c **** 
  77:Core/Src/main.c ****   /* MCU Configuration--------------------------------------------------------*/
  78:Core/Src/main.c **** 
  79:Core/Src/main.c ****   /* Reset of all peripherals, Initializes the Flash interface and the Systick. */
  80:Core/Src/main.c ****   HAL_Init();
  81:Core/Src/main.c **** 
  82:Core/Src/main.c ****   /* USER CODE BEGIN Init */
  83:Core/Src/main.c **** 
  84:Core/Src/main.c ****   /* USER CODE END Init */
  85:Core/Src/main.c **** 
  86:Core/Src/main.c ****   /* Configure the system clock */
  87:Core/Src/main.c ****   SystemClock_Config();
  88:Core/Src/main.c **** 
  89:Core/Src/main.c ****   /* USER CODE BEGIN SysInit */
ARM GAS  C:\Users\admin\AppData\Local\Temp\ccsVakyk.s 			page 3


  90:Core/Src/main.c **** 
  91:Core/Src/main.c ****   /* USER CODE END SysInit */
  92:Core/Src/main.c **** 
  93:Core/Src/main.c ****   /* Initialize all configured peripherals */
  94:Core/Src/main.c ****   MX_GPIO_Init();
  95:Core/Src/main.c ****   /* USER CODE BEGIN 2 */
  96:Core/Src/main.c **** 
  97:Core/Src/main.c ****   /* USER CODE END 2 */
  98:Core/Src/main.c **** 
  99:Core/Src/main.c ****   /* Init scheduler */
 100:Core/Src/main.c ****   osKernelInitialize();
 101:Core/Src/main.c **** 
 102:Core/Src/main.c ****   /* Call init function for freertos objects (in cmsis_os2.c) */
 103:Core/Src/main.c ****   MX_FREERTOS_Init();
 104:Core/Src/main.c **** 
 105:Core/Src/main.c ****   /* Start scheduler */
 106:Core/Src/main.c ****   osKernelStart();
 107:Core/Src/main.c **** 
 108:Core/Src/main.c ****   /* We should never get here as control is now taken by the scheduler */
 109:Core/Src/main.c **** 
 110:Core/Src/main.c ****   /* Infinite loop */
 111:Core/Src/main.c ****   /* USER CODE BEGIN WHILE */
 112:Core/Src/main.c ****   while (1)
 113:Core/Src/main.c ****   {
 114:Core/Src/main.c ****     /* USER CODE END WHILE */
 115:Core/Src/main.c **** 
 116:Core/Src/main.c ****     /* USER CODE BEGIN 3 */
 117:Core/Src/main.c ****   }
 118:Core/Src/main.c ****   /* USER CODE END 3 */
 119:Core/Src/main.c **** }
 120:Core/Src/main.c **** 
 121:Core/Src/main.c **** /**
 122:Core/Src/main.c ****   * @brief System Clock Configuration
 123:Core/Src/main.c ****   * @retval None
 124:Core/Src/main.c ****   */
 125:Core/Src/main.c **** void SystemClock_Config(void)
 126:Core/Src/main.c **** {
 127:Core/Src/main.c ****   RCC_OscInitTypeDef RCC_OscInitStruct = {0};
 128:Core/Src/main.c ****   RCC_ClkInitTypeDef RCC_ClkInitStruct = {0};
 129:Core/Src/main.c **** 
 130:Core/Src/main.c ****   /** Supply configuration update enable
 131:Core/Src/main.c ****   */
 132:Core/Src/main.c ****   HAL_PWREx_ConfigSupply(PWR_LDO_SUPPLY);
 133:Core/Src/main.c **** 
 134:Core/Src/main.c ****   /** Configure the main internal regulator output voltage
 135:Core/Src/main.c ****   */
 136:Core/Src/main.c ****   __HAL_PWR_VOLTAGESCALING_CONFIG(PWR_REGULATOR_VOLTAGE_SCALE0);
 137:Core/Src/main.c **** 
 138:Core/Src/main.c ****   while(!__HAL_PWR_GET_FLAG(PWR_FLAG_VOSRDY)) {}
 139:Core/Src/main.c **** 
 140:Core/Src/main.c ****   /** Initializes the RCC Oscillators according to the specified parameters
 141:Core/Src/main.c ****   * in the RCC_OscInitTypeDef structure.
 142:Core/Src/main.c ****   */
 143:Core/Src/main.c ****   RCC_OscInitStruct.OscillatorType = RCC_OSCILLATORTYPE_HSE;
 144:Core/Src/main.c ****   RCC_OscInitStruct.HSEState = RCC_HSE_ON;
 145:Core/Src/main.c ****   RCC_OscInitStruct.PLL.PLLState = RCC_PLL_ON;
 146:Core/Src/main.c ****   RCC_OscInitStruct.PLL.PLLSource = RCC_PLLSOURCE_HSE;
ARM GAS  C:\Users\admin\AppData\Local\Temp\ccsVakyk.s 			page 4


 147:Core/Src/main.c ****   RCC_OscInitStruct.PLL.PLLM = 5;
 148:Core/Src/main.c ****   RCC_OscInitStruct.PLL.PLLN = 110;
 149:Core/Src/main.c ****   RCC_OscInitStruct.PLL.PLLP = 1;
 150:Core/Src/main.c ****   RCC_OscInitStruct.PLL.PLLQ = 2;
 151:Core/Src/main.c ****   RCC_OscInitStruct.PLL.PLLR = 2;
 152:Core/Src/main.c ****   RCC_OscInitStruct.PLL.PLLRGE = RCC_PLL1VCIRANGE_2;
 153:Core/Src/main.c ****   RCC_OscInitStruct.PLL.PLLVCOSEL = RCC_PLL1VCOWIDE;
 154:Core/Src/main.c ****   RCC_OscInitStruct.PLL.PLLFRACN = 0;
 155:Core/Src/main.c ****   if (HAL_RCC_OscConfig(&RCC_OscInitStruct) != HAL_OK)
 156:Core/Src/main.c ****   {
 157:Core/Src/main.c ****     Error_Handler();
 158:Core/Src/main.c ****   }
 159:Core/Src/main.c **** 
 160:Core/Src/main.c ****   /** Initializes the CPU, AHB and APB buses clocks
 161:Core/Src/main.c ****   */
 162:Core/Src/main.c ****   RCC_ClkInitStruct.ClockType = RCC_CLOCKTYPE_HCLK|RCC_CLOCKTYPE_SYSCLK
 163:Core/Src/main.c ****                               |RCC_CLOCKTYPE_PCLK1|RCC_CLOCKTYPE_PCLK2
 164:Core/Src/main.c ****                               |RCC_CLOCKTYPE_D3PCLK1|RCC_CLOCKTYPE_D1PCLK1;
 165:Core/Src/main.c ****   RCC_ClkInitStruct.SYSCLKSource = RCC_SYSCLKSOURCE_PLLCLK;
 166:Core/Src/main.c ****   RCC_ClkInitStruct.SYSCLKDivider = RCC_SYSCLK_DIV1;
 167:Core/Src/main.c ****   RCC_ClkInitStruct.AHBCLKDivider = RCC_HCLK_DIV2;
 168:Core/Src/main.c ****   RCC_ClkInitStruct.APB3CLKDivider = RCC_APB3_DIV2;
 169:Core/Src/main.c ****   RCC_ClkInitStruct.APB1CLKDivider = RCC_APB1_DIV2;
 170:Core/Src/main.c ****   RCC_ClkInitStruct.APB2CLKDivider = RCC_APB2_DIV2;
 171:Core/Src/main.c ****   RCC_ClkInitStruct.APB4CLKDivider = RCC_APB4_DIV2;
 172:Core/Src/main.c **** 
 173:Core/Src/main.c ****   if (HAL_RCC_ClockConfig(&RCC_ClkInitStruct, FLASH_LATENCY_3) != HAL_OK)
 174:Core/Src/main.c ****   {
 175:Core/Src/main.c ****     Error_Handler();
 176:Core/Src/main.c ****   }
 177:Core/Src/main.c **** }
 178:Core/Src/main.c **** 
 179:Core/Src/main.c **** /* USER CODE BEGIN 4 */
 180:Core/Src/main.c **** 
 181:Core/Src/main.c **** /* USER CODE END 4 */
 182:Core/Src/main.c **** 
 183:Core/Src/main.c ****  /* MPU Configuration */
 184:Core/Src/main.c **** 
 185:Core/Src/main.c **** void MPU_Config(void)
 186:Core/Src/main.c **** {
  27              		.loc 1 186 1 view -0
  28              		.cfi_startproc
  29              		@ args = 0, pretend = 0, frame = 16
  30              		@ frame_needed = 0, uses_anonymous_args = 0
  31 0000 10B5     		push	{r4, lr}
  32              	.LCFI0:
  33              		.cfi_def_cfa_offset 8
  34              		.cfi_offset 4, -8
  35              		.cfi_offset 14, -4
  36 0002 84B0     		sub	sp, sp, #16
  37              	.LCFI1:
  38              		.cfi_def_cfa_offset 24
 187:Core/Src/main.c ****   MPU_Region_InitTypeDef MPU_InitStruct = {0};
  39              		.loc 1 187 3 view .LVU1
  40              		.loc 1 187 26 is_stmt 0 view .LVU2
  41 0004 0024     		movs	r4, #0
  42 0006 0094     		str	r4, [sp]
ARM GAS  C:\Users\admin\AppData\Local\Temp\ccsVakyk.s 			page 5


  43 0008 0194     		str	r4, [sp, #4]
  44 000a 0294     		str	r4, [sp, #8]
  45 000c 0394     		str	r4, [sp, #12]
 188:Core/Src/main.c **** 
 189:Core/Src/main.c ****   /* Disables the MPU */
 190:Core/Src/main.c ****   HAL_MPU_Disable();
  46              		.loc 1 190 3 is_stmt 1 view .LVU3
  47 000e FFF7FEFF 		bl	HAL_MPU_Disable
  48              	.LVL0:
 191:Core/Src/main.c **** 
 192:Core/Src/main.c ****   /** Initializes and configures the Region and the memory to be protected
 193:Core/Src/main.c ****   */
 194:Core/Src/main.c ****   MPU_InitStruct.Enable = MPU_REGION_ENABLE;
  49              		.loc 1 194 3 view .LVU4
  50              		.loc 1 194 25 is_stmt 0 view .LVU5
  51 0012 0123     		movs	r3, #1
  52 0014 8DF80030 		strb	r3, [sp]
 195:Core/Src/main.c ****   MPU_InitStruct.Number = MPU_REGION_NUMBER0;
  53              		.loc 1 195 3 is_stmt 1 view .LVU6
  54              		.loc 1 195 25 is_stmt 0 view .LVU7
  55 0018 8DF80140 		strb	r4, [sp, #1]
 196:Core/Src/main.c ****   MPU_InitStruct.BaseAddress = 0x0;
  56              		.loc 1 196 3 is_stmt 1 view .LVU8
  57              		.loc 1 196 30 is_stmt 0 view .LVU9
  58 001c 0194     		str	r4, [sp, #4]
 197:Core/Src/main.c ****   MPU_InitStruct.Size = MPU_REGION_SIZE_4GB;
  59              		.loc 1 197 3 is_stmt 1 view .LVU10
  60              		.loc 1 197 23 is_stmt 0 view .LVU11
  61 001e 1F22     		movs	r2, #31
  62 0020 8DF80820 		strb	r2, [sp, #8]
 198:Core/Src/main.c ****   MPU_InitStruct.SubRegionDisable = 0x87;
  63              		.loc 1 198 3 is_stmt 1 view .LVU12
  64              		.loc 1 198 35 is_stmt 0 view .LVU13
  65 0024 8722     		movs	r2, #135
  66 0026 8DF80920 		strb	r2, [sp, #9]
 199:Core/Src/main.c ****   MPU_InitStruct.TypeExtField = MPU_TEX_LEVEL0;
  67              		.loc 1 199 3 is_stmt 1 view .LVU14
  68              		.loc 1 199 31 is_stmt 0 view .LVU15
  69 002a 8DF80A40 		strb	r4, [sp, #10]
 200:Core/Src/main.c ****   MPU_InitStruct.AccessPermission = MPU_REGION_NO_ACCESS;
  70              		.loc 1 200 3 is_stmt 1 view .LVU16
  71              		.loc 1 200 35 is_stmt 0 view .LVU17
  72 002e 8DF80B40 		strb	r4, [sp, #11]
 201:Core/Src/main.c ****   MPU_InitStruct.DisableExec = MPU_INSTRUCTION_ACCESS_DISABLE;
  73              		.loc 1 201 3 is_stmt 1 view .LVU18
  74              		.loc 1 201 30 is_stmt 0 view .LVU19
  75 0032 8DF80C30 		strb	r3, [sp, #12]
 202:Core/Src/main.c ****   MPU_InitStruct.IsShareable = MPU_ACCESS_SHAREABLE;
  76              		.loc 1 202 3 is_stmt 1 view .LVU20
  77              		.loc 1 202 30 is_stmt 0 view .LVU21
  78 0036 8DF80D30 		strb	r3, [sp, #13]
 203:Core/Src/main.c ****   MPU_InitStruct.IsCacheable = MPU_ACCESS_NOT_CACHEABLE;
  79              		.loc 1 203 3 is_stmt 1 view .LVU22
  80              		.loc 1 203 30 is_stmt 0 view .LVU23
  81 003a 8DF80E40 		strb	r4, [sp, #14]
 204:Core/Src/main.c ****   MPU_InitStruct.IsBufferable = MPU_ACCESS_NOT_BUFFERABLE;
  82              		.loc 1 204 3 is_stmt 1 view .LVU24
ARM GAS  C:\Users\admin\AppData\Local\Temp\ccsVakyk.s 			page 6


  83              		.loc 1 204 31 is_stmt 0 view .LVU25
  84 003e 8DF80F40 		strb	r4, [sp, #15]
 205:Core/Src/main.c **** 
 206:Core/Src/main.c ****   HAL_MPU_ConfigRegion(&MPU_InitStruct);
  85              		.loc 1 206 3 is_stmt 1 view .LVU26
  86 0042 6846     		mov	r0, sp
  87 0044 FFF7FEFF 		bl	HAL_MPU_ConfigRegion
  88              	.LVL1:
 207:Core/Src/main.c ****   /* Enables the MPU */
 208:Core/Src/main.c ****   HAL_MPU_Enable(MPU_PRIVILEGED_DEFAULT);
  89              		.loc 1 208 3 view .LVU27
  90 0048 0420     		movs	r0, #4
  91 004a FFF7FEFF 		bl	HAL_MPU_Enable
  92              	.LVL2:
 209:Core/Src/main.c **** 
 210:Core/Src/main.c **** }
  93              		.loc 1 210 1 is_stmt 0 view .LVU28
  94 004e 04B0     		add	sp, sp, #16
  95              	.LCFI2:
  96              		.cfi_def_cfa_offset 8
  97              		@ sp needed
  98 0050 10BD     		pop	{r4, pc}
  99              		.cfi_endproc
 100              	.LFE150:
 102              		.section	.text.HAL_TIM_PeriodElapsedCallback,"ax",%progbits
 103              		.align	1
 104              		.global	HAL_TIM_PeriodElapsedCallback
 105              		.syntax unified
 106              		.thumb
 107              		.thumb_func
 109              	HAL_TIM_PeriodElapsedCallback:
 110              	.LVL3:
 111              	.LFB151:
 211:Core/Src/main.c **** 
 212:Core/Src/main.c **** /**
 213:Core/Src/main.c ****   * @brief  Period elapsed callback in non blocking mode
 214:Core/Src/main.c ****   * @note   This function is called  when TIM1 interrupt took place, inside
 215:Core/Src/main.c ****   * HAL_TIM_IRQHandler(). It makes a direct call to HAL_IncTick() to increment
 216:Core/Src/main.c ****   * a global variable "uwTick" used as application time base.
 217:Core/Src/main.c ****   * @param  htim : TIM handle
 218:Core/Src/main.c ****   * @retval None
 219:Core/Src/main.c ****   */
 220:Core/Src/main.c **** void HAL_TIM_PeriodElapsedCallback(TIM_HandleTypeDef *htim)
 221:Core/Src/main.c **** {
 112              		.loc 1 221 1 is_stmt 1 view -0
 113              		.cfi_startproc
 114              		@ args = 0, pretend = 0, frame = 0
 115              		@ frame_needed = 0, uses_anonymous_args = 0
 116              		.loc 1 221 1 is_stmt 0 view .LVU30
 117 0000 08B5     		push	{r3, lr}
 118              	.LCFI3:
 119              		.cfi_def_cfa_offset 8
 120              		.cfi_offset 3, -8
 121              		.cfi_offset 14, -4
 222:Core/Src/main.c ****   /* USER CODE BEGIN Callback 0 */
 223:Core/Src/main.c **** 
 224:Core/Src/main.c ****   /* USER CODE END Callback 0 */
ARM GAS  C:\Users\admin\AppData\Local\Temp\ccsVakyk.s 			page 7


 225:Core/Src/main.c ****   if (htim->Instance == TIM1) {
 122              		.loc 1 225 3 is_stmt 1 view .LVU31
 123              		.loc 1 225 11 is_stmt 0 view .LVU32
 124 0002 0268     		ldr	r2, [r0]
 125              		.loc 1 225 6 view .LVU33
 126 0004 034B     		ldr	r3, .L7
 127 0006 9A42     		cmp	r2, r3
 128 0008 00D0     		beq	.L6
 129              	.LVL4:
 130              	.L3:
 226:Core/Src/main.c ****     HAL_IncTick();
 227:Core/Src/main.c ****   }
 228:Core/Src/main.c ****   /* USER CODE BEGIN Callback 1 */
 229:Core/Src/main.c **** 
 230:Core/Src/main.c ****   /* USER CODE END Callback 1 */
 231:Core/Src/main.c **** }
 131              		.loc 1 231 1 view .LVU34
 132 000a 08BD     		pop	{r3, pc}
 133              	.LVL5:
 134              	.L6:
 226:Core/Src/main.c ****     HAL_IncTick();
 135              		.loc 1 226 5 is_stmt 1 view .LVU35
 136 000c FFF7FEFF 		bl	HAL_IncTick
 137              	.LVL6:
 138              		.loc 1 231 1 is_stmt 0 view .LVU36
 139 0010 FBE7     		b	.L3
 140              	.L8:
 141 0012 00BF     		.align	2
 142              	.L7:
 143 0014 00000140 		.word	1073807360
 144              		.cfi_endproc
 145              	.LFE151:
 147              		.section	.text.Error_Handler,"ax",%progbits
 148              		.align	1
 149              		.global	Error_Handler
 150              		.syntax unified
 151              		.thumb
 152              		.thumb_func
 154              	Error_Handler:
 155              	.LFB152:
 232:Core/Src/main.c **** 
 233:Core/Src/main.c **** /**
 234:Core/Src/main.c ****   * @brief  This function is executed in case of error occurrence.
 235:Core/Src/main.c ****   * @retval None
 236:Core/Src/main.c ****   */
 237:Core/Src/main.c **** void Error_Handler(void)
 238:Core/Src/main.c **** {
 156              		.loc 1 238 1 is_stmt 1 view -0
 157              		.cfi_startproc
 158              		@ Volatile: function does not return.
 159              		@ args = 0, pretend = 0, frame = 0
 160              		@ frame_needed = 0, uses_anonymous_args = 0
 161              		@ link register save eliminated.
 239:Core/Src/main.c ****   /* USER CODE BEGIN Error_Handler_Debug */
 240:Core/Src/main.c ****   /* User can add his own implementation to report the HAL error return state */
 241:Core/Src/main.c ****   __disable_irq();
 162              		.loc 1 241 3 view .LVU38
ARM GAS  C:\Users\admin\AppData\Local\Temp\ccsVakyk.s 			page 8


 163              	.LBB4:
 164              	.LBI4:
 165              		.file 2 "C:/Users/admin/STM32Cube/Repository/STM32Cube_FW_H7_V1.11.1/Drivers/CMSIS/Include/cmsis_g
   1:C:/Users/admin/STM32Cube/Repository/STM32Cube_FW_H7_V1.11.1/Drivers/CMSIS/Include\cmsis_gcc.h **** /**************************************************************************//**
   2:C:/Users/admin/STM32Cube/Repository/STM32Cube_FW_H7_V1.11.1/Drivers/CMSIS/Include\cmsis_gcc.h ****  * @file     cmsis_gcc.h
   3:C:/Users/admin/STM32Cube/Repository/STM32Cube_FW_H7_V1.11.1/Drivers/CMSIS/Include\cmsis_gcc.h ****  * @brief    CMSIS compiler GCC header file
   4:C:/Users/admin/STM32Cube/Repository/STM32Cube_FW_H7_V1.11.1/Drivers/CMSIS/Include\cmsis_gcc.h ****  * @version  V5.2.0
   5:C:/Users/admin/STM32Cube/Repository/STM32Cube_FW_H7_V1.11.1/Drivers/CMSIS/Include\cmsis_gcc.h ****  * @date     08. May 2019
   6:C:/Users/admin/STM32Cube/Repository/STM32Cube_FW_H7_V1.11.1/Drivers/CMSIS/Include\cmsis_gcc.h ****  ******************************************************************************/
   7:C:/Users/admin/STM32Cube/Repository/STM32Cube_FW_H7_V1.11.1/Drivers/CMSIS/Include\cmsis_gcc.h **** /*
   8:C:/Users/admin/STM32Cube/Repository/STM32Cube_FW_H7_V1.11.1/Drivers/CMSIS/Include\cmsis_gcc.h ****  * Copyright (c) 2009-2019 Arm Limited. All rights reserved.
   9:C:/Users/admin/STM32Cube/Repository/STM32Cube_FW_H7_V1.11.1/Drivers/CMSIS/Include\cmsis_gcc.h ****  *
  10:C:/Users/admin/STM32Cube/Repository/STM32Cube_FW_H7_V1.11.1/Drivers/CMSIS/Include\cmsis_gcc.h ****  * SPDX-License-Identifier: Apache-2.0
  11:C:/Users/admin/STM32Cube/Repository/STM32Cube_FW_H7_V1.11.1/Drivers/CMSIS/Include\cmsis_gcc.h ****  *
  12:C:/Users/admin/STM32Cube/Repository/STM32Cube_FW_H7_V1.11.1/Drivers/CMSIS/Include\cmsis_gcc.h ****  * Licensed under the Apache License, Version 2.0 (the License); you may
  13:C:/Users/admin/STM32Cube/Repository/STM32Cube_FW_H7_V1.11.1/Drivers/CMSIS/Include\cmsis_gcc.h ****  * not use this file except in compliance with the License.
  14:C:/Users/admin/STM32Cube/Repository/STM32Cube_FW_H7_V1.11.1/Drivers/CMSIS/Include\cmsis_gcc.h ****  * You may obtain a copy of the License at
  15:C:/Users/admin/STM32Cube/Repository/STM32Cube_FW_H7_V1.11.1/Drivers/CMSIS/Include\cmsis_gcc.h ****  *
  16:C:/Users/admin/STM32Cube/Repository/STM32Cube_FW_H7_V1.11.1/Drivers/CMSIS/Include\cmsis_gcc.h ****  * www.apache.org/licenses/LICENSE-2.0
  17:C:/Users/admin/STM32Cube/Repository/STM32Cube_FW_H7_V1.11.1/Drivers/CMSIS/Include\cmsis_gcc.h ****  *
  18:C:/Users/admin/STM32Cube/Repository/STM32Cube_FW_H7_V1.11.1/Drivers/CMSIS/Include\cmsis_gcc.h ****  * Unless required by applicable law or agreed to in writing, software
  19:C:/Users/admin/STM32Cube/Repository/STM32Cube_FW_H7_V1.11.1/Drivers/CMSIS/Include\cmsis_gcc.h ****  * distributed under the License is distributed on an AS IS BASIS, WITHOUT
  20:C:/Users/admin/STM32Cube/Repository/STM32Cube_FW_H7_V1.11.1/Drivers/CMSIS/Include\cmsis_gcc.h ****  * WARRANTIES OR CONDITIONS OF ANY KIND, either express or implied.
  21:C:/Users/admin/STM32Cube/Repository/STM32Cube_FW_H7_V1.11.1/Drivers/CMSIS/Include\cmsis_gcc.h ****  * See the License for the specific language governing permissions and
  22:C:/Users/admin/STM32Cube/Repository/STM32Cube_FW_H7_V1.11.1/Drivers/CMSIS/Include\cmsis_gcc.h ****  * limitations under the License.
  23:C:/Users/admin/STM32Cube/Repository/STM32Cube_FW_H7_V1.11.1/Drivers/CMSIS/Include\cmsis_gcc.h ****  */
  24:C:/Users/admin/STM32Cube/Repository/STM32Cube_FW_H7_V1.11.1/Drivers/CMSIS/Include\cmsis_gcc.h **** 
  25:C:/Users/admin/STM32Cube/Repository/STM32Cube_FW_H7_V1.11.1/Drivers/CMSIS/Include\cmsis_gcc.h **** #ifndef __CMSIS_GCC_H
  26:C:/Users/admin/STM32Cube/Repository/STM32Cube_FW_H7_V1.11.1/Drivers/CMSIS/Include\cmsis_gcc.h **** #define __CMSIS_GCC_H
  27:C:/Users/admin/STM32Cube/Repository/STM32Cube_FW_H7_V1.11.1/Drivers/CMSIS/Include\cmsis_gcc.h **** 
  28:C:/Users/admin/STM32Cube/Repository/STM32Cube_FW_H7_V1.11.1/Drivers/CMSIS/Include\cmsis_gcc.h **** /* ignore some GCC warnings */
  29:C:/Users/admin/STM32Cube/Repository/STM32Cube_FW_H7_V1.11.1/Drivers/CMSIS/Include\cmsis_gcc.h **** #pragma GCC diagnostic push
  30:C:/Users/admin/STM32Cube/Repository/STM32Cube_FW_H7_V1.11.1/Drivers/CMSIS/Include\cmsis_gcc.h **** #pragma GCC diagnostic ignored "-Wsign-conversion"
  31:C:/Users/admin/STM32Cube/Repository/STM32Cube_FW_H7_V1.11.1/Drivers/CMSIS/Include\cmsis_gcc.h **** #pragma GCC diagnostic ignored "-Wconversion"
  32:C:/Users/admin/STM32Cube/Repository/STM32Cube_FW_H7_V1.11.1/Drivers/CMSIS/Include\cmsis_gcc.h **** #pragma GCC diagnostic ignored "-Wunused-parameter"
  33:C:/Users/admin/STM32Cube/Repository/STM32Cube_FW_H7_V1.11.1/Drivers/CMSIS/Include\cmsis_gcc.h **** 
  34:C:/Users/admin/STM32Cube/Repository/STM32Cube_FW_H7_V1.11.1/Drivers/CMSIS/Include\cmsis_gcc.h **** /* Fallback for __has_builtin */
  35:C:/Users/admin/STM32Cube/Repository/STM32Cube_FW_H7_V1.11.1/Drivers/CMSIS/Include\cmsis_gcc.h **** #ifndef __has_builtin
  36:C:/Users/admin/STM32Cube/Repository/STM32Cube_FW_H7_V1.11.1/Drivers/CMSIS/Include\cmsis_gcc.h ****   #define __has_builtin(x) (0)
  37:C:/Users/admin/STM32Cube/Repository/STM32Cube_FW_H7_V1.11.1/Drivers/CMSIS/Include\cmsis_gcc.h **** #endif
  38:C:/Users/admin/STM32Cube/Repository/STM32Cube_FW_H7_V1.11.1/Drivers/CMSIS/Include\cmsis_gcc.h **** 
  39:C:/Users/admin/STM32Cube/Repository/STM32Cube_FW_H7_V1.11.1/Drivers/CMSIS/Include\cmsis_gcc.h **** /* CMSIS compiler specific defines */
  40:C:/Users/admin/STM32Cube/Repository/STM32Cube_FW_H7_V1.11.1/Drivers/CMSIS/Include\cmsis_gcc.h **** #ifndef   __ASM
  41:C:/Users/admin/STM32Cube/Repository/STM32Cube_FW_H7_V1.11.1/Drivers/CMSIS/Include\cmsis_gcc.h ****   #define __ASM                                  __asm
  42:C:/Users/admin/STM32Cube/Repository/STM32Cube_FW_H7_V1.11.1/Drivers/CMSIS/Include\cmsis_gcc.h **** #endif
  43:C:/Users/admin/STM32Cube/Repository/STM32Cube_FW_H7_V1.11.1/Drivers/CMSIS/Include\cmsis_gcc.h **** #ifndef   __INLINE
  44:C:/Users/admin/STM32Cube/Repository/STM32Cube_FW_H7_V1.11.1/Drivers/CMSIS/Include\cmsis_gcc.h ****   #define __INLINE                               inline
  45:C:/Users/admin/STM32Cube/Repository/STM32Cube_FW_H7_V1.11.1/Drivers/CMSIS/Include\cmsis_gcc.h **** #endif
  46:C:/Users/admin/STM32Cube/Repository/STM32Cube_FW_H7_V1.11.1/Drivers/CMSIS/Include\cmsis_gcc.h **** #ifndef   __STATIC_INLINE
  47:C:/Users/admin/STM32Cube/Repository/STM32Cube_FW_H7_V1.11.1/Drivers/CMSIS/Include\cmsis_gcc.h ****   #define __STATIC_INLINE                        static inline
  48:C:/Users/admin/STM32Cube/Repository/STM32Cube_FW_H7_V1.11.1/Drivers/CMSIS/Include\cmsis_gcc.h **** #endif
  49:C:/Users/admin/STM32Cube/Repository/STM32Cube_FW_H7_V1.11.1/Drivers/CMSIS/Include\cmsis_gcc.h **** #ifndef   __STATIC_FORCEINLINE                 
  50:C:/Users/admin/STM32Cube/Repository/STM32Cube_FW_H7_V1.11.1/Drivers/CMSIS/Include\cmsis_gcc.h ****   #define __STATIC_FORCEINLINE                   __attribute__((always_inline)) static inline
  51:C:/Users/admin/STM32Cube/Repository/STM32Cube_FW_H7_V1.11.1/Drivers/CMSIS/Include\cmsis_gcc.h **** #endif                                           
  52:C:/Users/admin/STM32Cube/Repository/STM32Cube_FW_H7_V1.11.1/Drivers/CMSIS/Include\cmsis_gcc.h **** #ifndef   __NO_RETURN
  53:C:/Users/admin/STM32Cube/Repository/STM32Cube_FW_H7_V1.11.1/Drivers/CMSIS/Include\cmsis_gcc.h ****   #define __NO_RETURN                            __attribute__((__noreturn__))
  54:C:/Users/admin/STM32Cube/Repository/STM32Cube_FW_H7_V1.11.1/Drivers/CMSIS/Include\cmsis_gcc.h **** #endif
ARM GAS  C:\Users\admin\AppData\Local\Temp\ccsVakyk.s 			page 9


  55:C:/Users/admin/STM32Cube/Repository/STM32Cube_FW_H7_V1.11.1/Drivers/CMSIS/Include\cmsis_gcc.h **** #ifndef   __USED
  56:C:/Users/admin/STM32Cube/Repository/STM32Cube_FW_H7_V1.11.1/Drivers/CMSIS/Include\cmsis_gcc.h ****   #define __USED                                 __attribute__((used))
  57:C:/Users/admin/STM32Cube/Repository/STM32Cube_FW_H7_V1.11.1/Drivers/CMSIS/Include\cmsis_gcc.h **** #endif
  58:C:/Users/admin/STM32Cube/Repository/STM32Cube_FW_H7_V1.11.1/Drivers/CMSIS/Include\cmsis_gcc.h **** #ifndef   __WEAK
  59:C:/Users/admin/STM32Cube/Repository/STM32Cube_FW_H7_V1.11.1/Drivers/CMSIS/Include\cmsis_gcc.h ****   #define __WEAK                                 __attribute__((weak))
  60:C:/Users/admin/STM32Cube/Repository/STM32Cube_FW_H7_V1.11.1/Drivers/CMSIS/Include\cmsis_gcc.h **** #endif
  61:C:/Users/admin/STM32Cube/Repository/STM32Cube_FW_H7_V1.11.1/Drivers/CMSIS/Include\cmsis_gcc.h **** #ifndef   __PACKED
  62:C:/Users/admin/STM32Cube/Repository/STM32Cube_FW_H7_V1.11.1/Drivers/CMSIS/Include\cmsis_gcc.h ****   #define __PACKED                               __attribute__((packed, aligned(1)))
  63:C:/Users/admin/STM32Cube/Repository/STM32Cube_FW_H7_V1.11.1/Drivers/CMSIS/Include\cmsis_gcc.h **** #endif
  64:C:/Users/admin/STM32Cube/Repository/STM32Cube_FW_H7_V1.11.1/Drivers/CMSIS/Include\cmsis_gcc.h **** #ifndef   __PACKED_STRUCT
  65:C:/Users/admin/STM32Cube/Repository/STM32Cube_FW_H7_V1.11.1/Drivers/CMSIS/Include\cmsis_gcc.h ****   #define __PACKED_STRUCT                        struct __attribute__((packed, aligned(1)))
  66:C:/Users/admin/STM32Cube/Repository/STM32Cube_FW_H7_V1.11.1/Drivers/CMSIS/Include\cmsis_gcc.h **** #endif
  67:C:/Users/admin/STM32Cube/Repository/STM32Cube_FW_H7_V1.11.1/Drivers/CMSIS/Include\cmsis_gcc.h **** #ifndef   __PACKED_UNION
  68:C:/Users/admin/STM32Cube/Repository/STM32Cube_FW_H7_V1.11.1/Drivers/CMSIS/Include\cmsis_gcc.h ****   #define __PACKED_UNION                         union __attribute__((packed, aligned(1)))
  69:C:/Users/admin/STM32Cube/Repository/STM32Cube_FW_H7_V1.11.1/Drivers/CMSIS/Include\cmsis_gcc.h **** #endif
  70:C:/Users/admin/STM32Cube/Repository/STM32Cube_FW_H7_V1.11.1/Drivers/CMSIS/Include\cmsis_gcc.h **** #ifndef   __UNALIGNED_UINT32        /* deprecated */
  71:C:/Users/admin/STM32Cube/Repository/STM32Cube_FW_H7_V1.11.1/Drivers/CMSIS/Include\cmsis_gcc.h ****   #pragma GCC diagnostic push
  72:C:/Users/admin/STM32Cube/Repository/STM32Cube_FW_H7_V1.11.1/Drivers/CMSIS/Include\cmsis_gcc.h ****   #pragma GCC diagnostic ignored "-Wpacked"
  73:C:/Users/admin/STM32Cube/Repository/STM32Cube_FW_H7_V1.11.1/Drivers/CMSIS/Include\cmsis_gcc.h ****   #pragma GCC diagnostic ignored "-Wattributes"
  74:C:/Users/admin/STM32Cube/Repository/STM32Cube_FW_H7_V1.11.1/Drivers/CMSIS/Include\cmsis_gcc.h ****   struct __attribute__((packed)) T_UINT32 { uint32_t v; };
  75:C:/Users/admin/STM32Cube/Repository/STM32Cube_FW_H7_V1.11.1/Drivers/CMSIS/Include\cmsis_gcc.h ****   #pragma GCC diagnostic pop
  76:C:/Users/admin/STM32Cube/Repository/STM32Cube_FW_H7_V1.11.1/Drivers/CMSIS/Include\cmsis_gcc.h ****   #define __UNALIGNED_UINT32(x)                  (((struct T_UINT32 *)(x))->v)
  77:C:/Users/admin/STM32Cube/Repository/STM32Cube_FW_H7_V1.11.1/Drivers/CMSIS/Include\cmsis_gcc.h **** #endif
  78:C:/Users/admin/STM32Cube/Repository/STM32Cube_FW_H7_V1.11.1/Drivers/CMSIS/Include\cmsis_gcc.h **** #ifndef   __UNALIGNED_UINT16_WRITE
  79:C:/Users/admin/STM32Cube/Repository/STM32Cube_FW_H7_V1.11.1/Drivers/CMSIS/Include\cmsis_gcc.h ****   #pragma GCC diagnostic push
  80:C:/Users/admin/STM32Cube/Repository/STM32Cube_FW_H7_V1.11.1/Drivers/CMSIS/Include\cmsis_gcc.h ****   #pragma GCC diagnostic ignored "-Wpacked"
  81:C:/Users/admin/STM32Cube/Repository/STM32Cube_FW_H7_V1.11.1/Drivers/CMSIS/Include\cmsis_gcc.h ****   #pragma GCC diagnostic ignored "-Wattributes"
  82:C:/Users/admin/STM32Cube/Repository/STM32Cube_FW_H7_V1.11.1/Drivers/CMSIS/Include\cmsis_gcc.h ****   __PACKED_STRUCT T_UINT16_WRITE { uint16_t v; };
  83:C:/Users/admin/STM32Cube/Repository/STM32Cube_FW_H7_V1.11.1/Drivers/CMSIS/Include\cmsis_gcc.h ****   #pragma GCC diagnostic pop
  84:C:/Users/admin/STM32Cube/Repository/STM32Cube_FW_H7_V1.11.1/Drivers/CMSIS/Include\cmsis_gcc.h ****   #define __UNALIGNED_UINT16_WRITE(addr, val)    (void)((((struct T_UINT16_WRITE *)(void *)(addr))-
  85:C:/Users/admin/STM32Cube/Repository/STM32Cube_FW_H7_V1.11.1/Drivers/CMSIS/Include\cmsis_gcc.h **** #endif
  86:C:/Users/admin/STM32Cube/Repository/STM32Cube_FW_H7_V1.11.1/Drivers/CMSIS/Include\cmsis_gcc.h **** #ifndef   __UNALIGNED_UINT16_READ
  87:C:/Users/admin/STM32Cube/Repository/STM32Cube_FW_H7_V1.11.1/Drivers/CMSIS/Include\cmsis_gcc.h ****   #pragma GCC diagnostic push
  88:C:/Users/admin/STM32Cube/Repository/STM32Cube_FW_H7_V1.11.1/Drivers/CMSIS/Include\cmsis_gcc.h ****   #pragma GCC diagnostic ignored "-Wpacked"
  89:C:/Users/admin/STM32Cube/Repository/STM32Cube_FW_H7_V1.11.1/Drivers/CMSIS/Include\cmsis_gcc.h ****   #pragma GCC diagnostic ignored "-Wattributes"
  90:C:/Users/admin/STM32Cube/Repository/STM32Cube_FW_H7_V1.11.1/Drivers/CMSIS/Include\cmsis_gcc.h ****   __PACKED_STRUCT T_UINT16_READ { uint16_t v; };
  91:C:/Users/admin/STM32Cube/Repository/STM32Cube_FW_H7_V1.11.1/Drivers/CMSIS/Include\cmsis_gcc.h ****   #pragma GCC diagnostic pop
  92:C:/Users/admin/STM32Cube/Repository/STM32Cube_FW_H7_V1.11.1/Drivers/CMSIS/Include\cmsis_gcc.h ****   #define __UNALIGNED_UINT16_READ(addr)          (((const struct T_UINT16_READ *)(const void *)(add
  93:C:/Users/admin/STM32Cube/Repository/STM32Cube_FW_H7_V1.11.1/Drivers/CMSIS/Include\cmsis_gcc.h **** #endif
  94:C:/Users/admin/STM32Cube/Repository/STM32Cube_FW_H7_V1.11.1/Drivers/CMSIS/Include\cmsis_gcc.h **** #ifndef   __UNALIGNED_UINT32_WRITE
  95:C:/Users/admin/STM32Cube/Repository/STM32Cube_FW_H7_V1.11.1/Drivers/CMSIS/Include\cmsis_gcc.h ****   #pragma GCC diagnostic push
  96:C:/Users/admin/STM32Cube/Repository/STM32Cube_FW_H7_V1.11.1/Drivers/CMSIS/Include\cmsis_gcc.h ****   #pragma GCC diagnostic ignored "-Wpacked"
  97:C:/Users/admin/STM32Cube/Repository/STM32Cube_FW_H7_V1.11.1/Drivers/CMSIS/Include\cmsis_gcc.h ****   #pragma GCC diagnostic ignored "-Wattributes"
  98:C:/Users/admin/STM32Cube/Repository/STM32Cube_FW_H7_V1.11.1/Drivers/CMSIS/Include\cmsis_gcc.h ****   __PACKED_STRUCT T_UINT32_WRITE { uint32_t v; };
  99:C:/Users/admin/STM32Cube/Repository/STM32Cube_FW_H7_V1.11.1/Drivers/CMSIS/Include\cmsis_gcc.h ****   #pragma GCC diagnostic pop
 100:C:/Users/admin/STM32Cube/Repository/STM32Cube_FW_H7_V1.11.1/Drivers/CMSIS/Include\cmsis_gcc.h ****   #define __UNALIGNED_UINT32_WRITE(addr, val)    (void)((((struct T_UINT32_WRITE *)(void *)(addr))-
 101:C:/Users/admin/STM32Cube/Repository/STM32Cube_FW_H7_V1.11.1/Drivers/CMSIS/Include\cmsis_gcc.h **** #endif
 102:C:/Users/admin/STM32Cube/Repository/STM32Cube_FW_H7_V1.11.1/Drivers/CMSIS/Include\cmsis_gcc.h **** #ifndef   __UNALIGNED_UINT32_READ
 103:C:/Users/admin/STM32Cube/Repository/STM32Cube_FW_H7_V1.11.1/Drivers/CMSIS/Include\cmsis_gcc.h ****   #pragma GCC diagnostic push
 104:C:/Users/admin/STM32Cube/Repository/STM32Cube_FW_H7_V1.11.1/Drivers/CMSIS/Include\cmsis_gcc.h ****   #pragma GCC diagnostic ignored "-Wpacked"
 105:C:/Users/admin/STM32Cube/Repository/STM32Cube_FW_H7_V1.11.1/Drivers/CMSIS/Include\cmsis_gcc.h ****   #pragma GCC diagnostic ignored "-Wattributes"
 106:C:/Users/admin/STM32Cube/Repository/STM32Cube_FW_H7_V1.11.1/Drivers/CMSIS/Include\cmsis_gcc.h ****   __PACKED_STRUCT T_UINT32_READ { uint32_t v; };
 107:C:/Users/admin/STM32Cube/Repository/STM32Cube_FW_H7_V1.11.1/Drivers/CMSIS/Include\cmsis_gcc.h ****   #pragma GCC diagnostic pop
 108:C:/Users/admin/STM32Cube/Repository/STM32Cube_FW_H7_V1.11.1/Drivers/CMSIS/Include\cmsis_gcc.h ****   #define __UNALIGNED_UINT32_READ(addr)          (((const struct T_UINT32_READ *)(const void *)(add
 109:C:/Users/admin/STM32Cube/Repository/STM32Cube_FW_H7_V1.11.1/Drivers/CMSIS/Include\cmsis_gcc.h **** #endif
 110:C:/Users/admin/STM32Cube/Repository/STM32Cube_FW_H7_V1.11.1/Drivers/CMSIS/Include\cmsis_gcc.h **** #ifndef   __ALIGNED
 111:C:/Users/admin/STM32Cube/Repository/STM32Cube_FW_H7_V1.11.1/Drivers/CMSIS/Include\cmsis_gcc.h ****   #define __ALIGNED(x)                           __attribute__((aligned(x)))
ARM GAS  C:\Users\admin\AppData\Local\Temp\ccsVakyk.s 			page 10


 112:C:/Users/admin/STM32Cube/Repository/STM32Cube_FW_H7_V1.11.1/Drivers/CMSIS/Include\cmsis_gcc.h **** #endif
 113:C:/Users/admin/STM32Cube/Repository/STM32Cube_FW_H7_V1.11.1/Drivers/CMSIS/Include\cmsis_gcc.h **** #ifndef   __RESTRICT
 114:C:/Users/admin/STM32Cube/Repository/STM32Cube_FW_H7_V1.11.1/Drivers/CMSIS/Include\cmsis_gcc.h ****   #define __RESTRICT                             __restrict
 115:C:/Users/admin/STM32Cube/Repository/STM32Cube_FW_H7_V1.11.1/Drivers/CMSIS/Include\cmsis_gcc.h **** #endif
 116:C:/Users/admin/STM32Cube/Repository/STM32Cube_FW_H7_V1.11.1/Drivers/CMSIS/Include\cmsis_gcc.h **** #ifndef   __COMPILER_BARRIER
 117:C:/Users/admin/STM32Cube/Repository/STM32Cube_FW_H7_V1.11.1/Drivers/CMSIS/Include\cmsis_gcc.h ****   #define __COMPILER_BARRIER()                   __ASM volatile("":::"memory")
 118:C:/Users/admin/STM32Cube/Repository/STM32Cube_FW_H7_V1.11.1/Drivers/CMSIS/Include\cmsis_gcc.h **** #endif
 119:C:/Users/admin/STM32Cube/Repository/STM32Cube_FW_H7_V1.11.1/Drivers/CMSIS/Include\cmsis_gcc.h **** 
 120:C:/Users/admin/STM32Cube/Repository/STM32Cube_FW_H7_V1.11.1/Drivers/CMSIS/Include\cmsis_gcc.h **** /* #########################  Startup and Lowlevel Init  ######################## */
 121:C:/Users/admin/STM32Cube/Repository/STM32Cube_FW_H7_V1.11.1/Drivers/CMSIS/Include\cmsis_gcc.h **** 
 122:C:/Users/admin/STM32Cube/Repository/STM32Cube_FW_H7_V1.11.1/Drivers/CMSIS/Include\cmsis_gcc.h **** #ifndef __PROGRAM_START
 123:C:/Users/admin/STM32Cube/Repository/STM32Cube_FW_H7_V1.11.1/Drivers/CMSIS/Include\cmsis_gcc.h **** 
 124:C:/Users/admin/STM32Cube/Repository/STM32Cube_FW_H7_V1.11.1/Drivers/CMSIS/Include\cmsis_gcc.h **** /**
 125:C:/Users/admin/STM32Cube/Repository/STM32Cube_FW_H7_V1.11.1/Drivers/CMSIS/Include\cmsis_gcc.h ****   \brief   Initializes data and bss sections
 126:C:/Users/admin/STM32Cube/Repository/STM32Cube_FW_H7_V1.11.1/Drivers/CMSIS/Include\cmsis_gcc.h ****   \details This default implementations initialized all data and additional bss
 127:C:/Users/admin/STM32Cube/Repository/STM32Cube_FW_H7_V1.11.1/Drivers/CMSIS/Include\cmsis_gcc.h ****            sections relying on .copy.table and .zero.table specified properly
 128:C:/Users/admin/STM32Cube/Repository/STM32Cube_FW_H7_V1.11.1/Drivers/CMSIS/Include\cmsis_gcc.h ****            in the used linker script.
 129:C:/Users/admin/STM32Cube/Repository/STM32Cube_FW_H7_V1.11.1/Drivers/CMSIS/Include\cmsis_gcc.h ****   
 130:C:/Users/admin/STM32Cube/Repository/STM32Cube_FW_H7_V1.11.1/Drivers/CMSIS/Include\cmsis_gcc.h ****  */
 131:C:/Users/admin/STM32Cube/Repository/STM32Cube_FW_H7_V1.11.1/Drivers/CMSIS/Include\cmsis_gcc.h **** __STATIC_FORCEINLINE __NO_RETURN void __cmsis_start(void)
 132:C:/Users/admin/STM32Cube/Repository/STM32Cube_FW_H7_V1.11.1/Drivers/CMSIS/Include\cmsis_gcc.h **** {
 133:C:/Users/admin/STM32Cube/Repository/STM32Cube_FW_H7_V1.11.1/Drivers/CMSIS/Include\cmsis_gcc.h ****   extern void _start(void) __NO_RETURN;
 134:C:/Users/admin/STM32Cube/Repository/STM32Cube_FW_H7_V1.11.1/Drivers/CMSIS/Include\cmsis_gcc.h ****   
 135:C:/Users/admin/STM32Cube/Repository/STM32Cube_FW_H7_V1.11.1/Drivers/CMSIS/Include\cmsis_gcc.h ****   typedef struct {
 136:C:/Users/admin/STM32Cube/Repository/STM32Cube_FW_H7_V1.11.1/Drivers/CMSIS/Include\cmsis_gcc.h ****     uint32_t const* src;
 137:C:/Users/admin/STM32Cube/Repository/STM32Cube_FW_H7_V1.11.1/Drivers/CMSIS/Include\cmsis_gcc.h ****     uint32_t* dest;
 138:C:/Users/admin/STM32Cube/Repository/STM32Cube_FW_H7_V1.11.1/Drivers/CMSIS/Include\cmsis_gcc.h ****     uint32_t  wlen;
 139:C:/Users/admin/STM32Cube/Repository/STM32Cube_FW_H7_V1.11.1/Drivers/CMSIS/Include\cmsis_gcc.h ****   } __copy_table_t;
 140:C:/Users/admin/STM32Cube/Repository/STM32Cube_FW_H7_V1.11.1/Drivers/CMSIS/Include\cmsis_gcc.h ****   
 141:C:/Users/admin/STM32Cube/Repository/STM32Cube_FW_H7_V1.11.1/Drivers/CMSIS/Include\cmsis_gcc.h ****   typedef struct {
 142:C:/Users/admin/STM32Cube/Repository/STM32Cube_FW_H7_V1.11.1/Drivers/CMSIS/Include\cmsis_gcc.h ****     uint32_t* dest;
 143:C:/Users/admin/STM32Cube/Repository/STM32Cube_FW_H7_V1.11.1/Drivers/CMSIS/Include\cmsis_gcc.h ****     uint32_t  wlen;
 144:C:/Users/admin/STM32Cube/Repository/STM32Cube_FW_H7_V1.11.1/Drivers/CMSIS/Include\cmsis_gcc.h ****   } __zero_table_t;
 145:C:/Users/admin/STM32Cube/Repository/STM32Cube_FW_H7_V1.11.1/Drivers/CMSIS/Include\cmsis_gcc.h ****   
 146:C:/Users/admin/STM32Cube/Repository/STM32Cube_FW_H7_V1.11.1/Drivers/CMSIS/Include\cmsis_gcc.h ****   extern const __copy_table_t __copy_table_start__;
 147:C:/Users/admin/STM32Cube/Repository/STM32Cube_FW_H7_V1.11.1/Drivers/CMSIS/Include\cmsis_gcc.h ****   extern const __copy_table_t __copy_table_end__;
 148:C:/Users/admin/STM32Cube/Repository/STM32Cube_FW_H7_V1.11.1/Drivers/CMSIS/Include\cmsis_gcc.h ****   extern const __zero_table_t __zero_table_start__;
 149:C:/Users/admin/STM32Cube/Repository/STM32Cube_FW_H7_V1.11.1/Drivers/CMSIS/Include\cmsis_gcc.h ****   extern const __zero_table_t __zero_table_end__;
 150:C:/Users/admin/STM32Cube/Repository/STM32Cube_FW_H7_V1.11.1/Drivers/CMSIS/Include\cmsis_gcc.h **** 
 151:C:/Users/admin/STM32Cube/Repository/STM32Cube_FW_H7_V1.11.1/Drivers/CMSIS/Include\cmsis_gcc.h ****   for (__copy_table_t const* pTable = &__copy_table_start__; pTable < &__copy_table_end__; ++pTable
 152:C:/Users/admin/STM32Cube/Repository/STM32Cube_FW_H7_V1.11.1/Drivers/CMSIS/Include\cmsis_gcc.h ****     for(uint32_t i=0u; i<pTable->wlen; ++i) {
 153:C:/Users/admin/STM32Cube/Repository/STM32Cube_FW_H7_V1.11.1/Drivers/CMSIS/Include\cmsis_gcc.h ****       pTable->dest[i] = pTable->src[i];
 154:C:/Users/admin/STM32Cube/Repository/STM32Cube_FW_H7_V1.11.1/Drivers/CMSIS/Include\cmsis_gcc.h ****     }
 155:C:/Users/admin/STM32Cube/Repository/STM32Cube_FW_H7_V1.11.1/Drivers/CMSIS/Include\cmsis_gcc.h ****   }
 156:C:/Users/admin/STM32Cube/Repository/STM32Cube_FW_H7_V1.11.1/Drivers/CMSIS/Include\cmsis_gcc.h ****  
 157:C:/Users/admin/STM32Cube/Repository/STM32Cube_FW_H7_V1.11.1/Drivers/CMSIS/Include\cmsis_gcc.h ****   for (__zero_table_t const* pTable = &__zero_table_start__; pTable < &__zero_table_end__; ++pTable
 158:C:/Users/admin/STM32Cube/Repository/STM32Cube_FW_H7_V1.11.1/Drivers/CMSIS/Include\cmsis_gcc.h ****     for(uint32_t i=0u; i<pTable->wlen; ++i) {
 159:C:/Users/admin/STM32Cube/Repository/STM32Cube_FW_H7_V1.11.1/Drivers/CMSIS/Include\cmsis_gcc.h ****       pTable->dest[i] = 0u;
 160:C:/Users/admin/STM32Cube/Repository/STM32Cube_FW_H7_V1.11.1/Drivers/CMSIS/Include\cmsis_gcc.h ****     }
 161:C:/Users/admin/STM32Cube/Repository/STM32Cube_FW_H7_V1.11.1/Drivers/CMSIS/Include\cmsis_gcc.h ****   }
 162:C:/Users/admin/STM32Cube/Repository/STM32Cube_FW_H7_V1.11.1/Drivers/CMSIS/Include\cmsis_gcc.h ****  
 163:C:/Users/admin/STM32Cube/Repository/STM32Cube_FW_H7_V1.11.1/Drivers/CMSIS/Include\cmsis_gcc.h ****   _start();
 164:C:/Users/admin/STM32Cube/Repository/STM32Cube_FW_H7_V1.11.1/Drivers/CMSIS/Include\cmsis_gcc.h **** }
 165:C:/Users/admin/STM32Cube/Repository/STM32Cube_FW_H7_V1.11.1/Drivers/CMSIS/Include\cmsis_gcc.h ****   
 166:C:/Users/admin/STM32Cube/Repository/STM32Cube_FW_H7_V1.11.1/Drivers/CMSIS/Include\cmsis_gcc.h **** #define __PROGRAM_START           __cmsis_start
 167:C:/Users/admin/STM32Cube/Repository/STM32Cube_FW_H7_V1.11.1/Drivers/CMSIS/Include\cmsis_gcc.h **** #endif
 168:C:/Users/admin/STM32Cube/Repository/STM32Cube_FW_H7_V1.11.1/Drivers/CMSIS/Include\cmsis_gcc.h **** 
ARM GAS  C:\Users\admin\AppData\Local\Temp\ccsVakyk.s 			page 11


 169:C:/Users/admin/STM32Cube/Repository/STM32Cube_FW_H7_V1.11.1/Drivers/CMSIS/Include\cmsis_gcc.h **** #ifndef __INITIAL_SP
 170:C:/Users/admin/STM32Cube/Repository/STM32Cube_FW_H7_V1.11.1/Drivers/CMSIS/Include\cmsis_gcc.h **** #define __INITIAL_SP              __StackTop
 171:C:/Users/admin/STM32Cube/Repository/STM32Cube_FW_H7_V1.11.1/Drivers/CMSIS/Include\cmsis_gcc.h **** #endif
 172:C:/Users/admin/STM32Cube/Repository/STM32Cube_FW_H7_V1.11.1/Drivers/CMSIS/Include\cmsis_gcc.h **** 
 173:C:/Users/admin/STM32Cube/Repository/STM32Cube_FW_H7_V1.11.1/Drivers/CMSIS/Include\cmsis_gcc.h **** #ifndef __STACK_LIMIT
 174:C:/Users/admin/STM32Cube/Repository/STM32Cube_FW_H7_V1.11.1/Drivers/CMSIS/Include\cmsis_gcc.h **** #define __STACK_LIMIT             __StackLimit
 175:C:/Users/admin/STM32Cube/Repository/STM32Cube_FW_H7_V1.11.1/Drivers/CMSIS/Include\cmsis_gcc.h **** #endif
 176:C:/Users/admin/STM32Cube/Repository/STM32Cube_FW_H7_V1.11.1/Drivers/CMSIS/Include\cmsis_gcc.h **** 
 177:C:/Users/admin/STM32Cube/Repository/STM32Cube_FW_H7_V1.11.1/Drivers/CMSIS/Include\cmsis_gcc.h **** #ifndef __VECTOR_TABLE
 178:C:/Users/admin/STM32Cube/Repository/STM32Cube_FW_H7_V1.11.1/Drivers/CMSIS/Include\cmsis_gcc.h **** #define __VECTOR_TABLE            __Vectors
 179:C:/Users/admin/STM32Cube/Repository/STM32Cube_FW_H7_V1.11.1/Drivers/CMSIS/Include\cmsis_gcc.h **** #endif
 180:C:/Users/admin/STM32Cube/Repository/STM32Cube_FW_H7_V1.11.1/Drivers/CMSIS/Include\cmsis_gcc.h **** 
 181:C:/Users/admin/STM32Cube/Repository/STM32Cube_FW_H7_V1.11.1/Drivers/CMSIS/Include\cmsis_gcc.h **** #ifndef __VECTOR_TABLE_ATTRIBUTE
 182:C:/Users/admin/STM32Cube/Repository/STM32Cube_FW_H7_V1.11.1/Drivers/CMSIS/Include\cmsis_gcc.h **** #define __VECTOR_TABLE_ATTRIBUTE  __attribute((used, section(".vectors")))
 183:C:/Users/admin/STM32Cube/Repository/STM32Cube_FW_H7_V1.11.1/Drivers/CMSIS/Include\cmsis_gcc.h **** #endif
 184:C:/Users/admin/STM32Cube/Repository/STM32Cube_FW_H7_V1.11.1/Drivers/CMSIS/Include\cmsis_gcc.h **** 
 185:C:/Users/admin/STM32Cube/Repository/STM32Cube_FW_H7_V1.11.1/Drivers/CMSIS/Include\cmsis_gcc.h **** /* ###########################  Core Function Access  ########################### */
 186:C:/Users/admin/STM32Cube/Repository/STM32Cube_FW_H7_V1.11.1/Drivers/CMSIS/Include\cmsis_gcc.h **** /** \ingroup  CMSIS_Core_FunctionInterface
 187:C:/Users/admin/STM32Cube/Repository/STM32Cube_FW_H7_V1.11.1/Drivers/CMSIS/Include\cmsis_gcc.h ****     \defgroup CMSIS_Core_RegAccFunctions CMSIS Core Register Access Functions
 188:C:/Users/admin/STM32Cube/Repository/STM32Cube_FW_H7_V1.11.1/Drivers/CMSIS/Include\cmsis_gcc.h ****   @{
 189:C:/Users/admin/STM32Cube/Repository/STM32Cube_FW_H7_V1.11.1/Drivers/CMSIS/Include\cmsis_gcc.h ****  */
 190:C:/Users/admin/STM32Cube/Repository/STM32Cube_FW_H7_V1.11.1/Drivers/CMSIS/Include\cmsis_gcc.h **** 
 191:C:/Users/admin/STM32Cube/Repository/STM32Cube_FW_H7_V1.11.1/Drivers/CMSIS/Include\cmsis_gcc.h **** /**
 192:C:/Users/admin/STM32Cube/Repository/STM32Cube_FW_H7_V1.11.1/Drivers/CMSIS/Include\cmsis_gcc.h ****   \brief   Enable IRQ Interrupts
 193:C:/Users/admin/STM32Cube/Repository/STM32Cube_FW_H7_V1.11.1/Drivers/CMSIS/Include\cmsis_gcc.h ****   \details Enables IRQ interrupts by clearing the I-bit in the CPSR.
 194:C:/Users/admin/STM32Cube/Repository/STM32Cube_FW_H7_V1.11.1/Drivers/CMSIS/Include\cmsis_gcc.h ****            Can only be executed in Privileged modes.
 195:C:/Users/admin/STM32Cube/Repository/STM32Cube_FW_H7_V1.11.1/Drivers/CMSIS/Include\cmsis_gcc.h ****  */
 196:C:/Users/admin/STM32Cube/Repository/STM32Cube_FW_H7_V1.11.1/Drivers/CMSIS/Include\cmsis_gcc.h **** __STATIC_FORCEINLINE void __enable_irq(void)
 197:C:/Users/admin/STM32Cube/Repository/STM32Cube_FW_H7_V1.11.1/Drivers/CMSIS/Include\cmsis_gcc.h **** {
 198:C:/Users/admin/STM32Cube/Repository/STM32Cube_FW_H7_V1.11.1/Drivers/CMSIS/Include\cmsis_gcc.h ****   __ASM volatile ("cpsie i" : : : "memory");
 199:C:/Users/admin/STM32Cube/Repository/STM32Cube_FW_H7_V1.11.1/Drivers/CMSIS/Include\cmsis_gcc.h **** }
 200:C:/Users/admin/STM32Cube/Repository/STM32Cube_FW_H7_V1.11.1/Drivers/CMSIS/Include\cmsis_gcc.h **** 
 201:C:/Users/admin/STM32Cube/Repository/STM32Cube_FW_H7_V1.11.1/Drivers/CMSIS/Include\cmsis_gcc.h **** 
 202:C:/Users/admin/STM32Cube/Repository/STM32Cube_FW_H7_V1.11.1/Drivers/CMSIS/Include\cmsis_gcc.h **** /**
 203:C:/Users/admin/STM32Cube/Repository/STM32Cube_FW_H7_V1.11.1/Drivers/CMSIS/Include\cmsis_gcc.h ****   \brief   Disable IRQ Interrupts
 204:C:/Users/admin/STM32Cube/Repository/STM32Cube_FW_H7_V1.11.1/Drivers/CMSIS/Include\cmsis_gcc.h ****   \details Disables IRQ interrupts by setting the I-bit in the CPSR.
 205:C:/Users/admin/STM32Cube/Repository/STM32Cube_FW_H7_V1.11.1/Drivers/CMSIS/Include\cmsis_gcc.h ****            Can only be executed in Privileged modes.
 206:C:/Users/admin/STM32Cube/Repository/STM32Cube_FW_H7_V1.11.1/Drivers/CMSIS/Include\cmsis_gcc.h ****  */
 207:C:/Users/admin/STM32Cube/Repository/STM32Cube_FW_H7_V1.11.1/Drivers/CMSIS/Include\cmsis_gcc.h **** __STATIC_FORCEINLINE void __disable_irq(void)
 166              		.loc 2 207 27 view .LVU39
 167              	.LBB5:
 208:C:/Users/admin/STM32Cube/Repository/STM32Cube_FW_H7_V1.11.1/Drivers/CMSIS/Include\cmsis_gcc.h **** {
 209:C:/Users/admin/STM32Cube/Repository/STM32Cube_FW_H7_V1.11.1/Drivers/CMSIS/Include\cmsis_gcc.h ****   __ASM volatile ("cpsid i" : : : "memory");
 168              		.loc 2 209 3 view .LVU40
 169              		.syntax unified
 170              	@ 209 "C:/Users/admin/STM32Cube/Repository/STM32Cube_FW_H7_V1.11.1/Drivers/CMSIS/Include/cmsis_gcc.
 171 0000 72B6     		cpsid i
 172              	@ 0 "" 2
 173              		.thumb
 174              		.syntax unified
 175              	.L10:
 176              	.LBE5:
 177              	.LBE4:
 242:Core/Src/main.c ****   while (1)
 178              		.loc 1 242 3 discriminator 1 view .LVU41
 243:Core/Src/main.c ****   {
 244:Core/Src/main.c ****   }
ARM GAS  C:\Users\admin\AppData\Local\Temp\ccsVakyk.s 			page 12


 179              		.loc 1 244 3 discriminator 1 view .LVU42
 242:Core/Src/main.c ****   while (1)
 180              		.loc 1 242 9 discriminator 1 view .LVU43
 181 0002 FEE7     		b	.L10
 182              		.cfi_endproc
 183              	.LFE152:
 185              		.section	.text.SystemClock_Config,"ax",%progbits
 186              		.align	1
 187              		.global	SystemClock_Config
 188              		.syntax unified
 189              		.thumb
 190              		.thumb_func
 192              	SystemClock_Config:
 193              	.LFB149:
 126:Core/Src/main.c ****   RCC_OscInitTypeDef RCC_OscInitStruct = {0};
 194              		.loc 1 126 1 view -0
 195              		.cfi_startproc
 196              		@ args = 0, pretend = 0, frame = 112
 197              		@ frame_needed = 0, uses_anonymous_args = 0
 198 0000 00B5     		push	{lr}
 199              	.LCFI4:
 200              		.cfi_def_cfa_offset 4
 201              		.cfi_offset 14, -4
 202 0002 9DB0     		sub	sp, sp, #116
 203              	.LCFI5:
 204              		.cfi_def_cfa_offset 120
 127:Core/Src/main.c ****   RCC_ClkInitTypeDef RCC_ClkInitStruct = {0};
 205              		.loc 1 127 3 view .LVU45
 127:Core/Src/main.c ****   RCC_ClkInitTypeDef RCC_ClkInitStruct = {0};
 206              		.loc 1 127 22 is_stmt 0 view .LVU46
 207 0004 4C22     		movs	r2, #76
 208 0006 0021     		movs	r1, #0
 209 0008 09A8     		add	r0, sp, #36
 210 000a FFF7FEFF 		bl	memset
 211              	.LVL7:
 128:Core/Src/main.c **** 
 212              		.loc 1 128 3 is_stmt 1 view .LVU47
 128:Core/Src/main.c **** 
 213              		.loc 1 128 22 is_stmt 0 view .LVU48
 214 000e 2022     		movs	r2, #32
 215 0010 0021     		movs	r1, #0
 216 0012 01A8     		add	r0, sp, #4
 217 0014 FFF7FEFF 		bl	memset
 218              	.LVL8:
 132:Core/Src/main.c **** 
 219              		.loc 1 132 3 is_stmt 1 view .LVU49
 220 0018 0220     		movs	r0, #2
 221 001a FFF7FEFF 		bl	HAL_PWREx_ConfigSupply
 222              	.LVL9:
 136:Core/Src/main.c **** 
 223              		.loc 1 136 3 view .LVU50
 224              	.LBB6:
 136:Core/Src/main.c **** 
 225              		.loc 1 136 3 view .LVU51
 226 001e 0023     		movs	r3, #0
 227 0020 0093     		str	r3, [sp]
 136:Core/Src/main.c **** 
ARM GAS  C:\Users\admin\AppData\Local\Temp\ccsVakyk.s 			page 13


 228              		.loc 1 136 3 view .LVU52
 229 0022 204B     		ldr	r3, .L18
 230 0024 9A69     		ldr	r2, [r3, #24]
 231 0026 22F44042 		bic	r2, r2, #49152
 232 002a 9A61     		str	r2, [r3, #24]
 136:Core/Src/main.c **** 
 233              		.loc 1 136 3 view .LVU53
 234 002c 9B69     		ldr	r3, [r3, #24]
 235 002e 03F44043 		and	r3, r3, #49152
 236 0032 0093     		str	r3, [sp]
 136:Core/Src/main.c **** 
 237              		.loc 1 136 3 view .LVU54
 238 0034 009B     		ldr	r3, [sp]
 239              	.LBE6:
 136:Core/Src/main.c **** 
 240              		.loc 1 136 3 view .LVU55
 138:Core/Src/main.c **** 
 241              		.loc 1 138 3 view .LVU56
 242              	.L12:
 138:Core/Src/main.c **** 
 243              		.loc 1 138 48 discriminator 1 view .LVU57
 138:Core/Src/main.c **** 
 244              		.loc 1 138 8 discriminator 1 view .LVU58
 138:Core/Src/main.c **** 
 245              		.loc 1 138 10 is_stmt 0 discriminator 1 view .LVU59
 246 0036 1B4B     		ldr	r3, .L18
 247 0038 9B69     		ldr	r3, [r3, #24]
 138:Core/Src/main.c **** 
 248              		.loc 1 138 8 discriminator 1 view .LVU60
 249 003a 13F4005F 		tst	r3, #8192
 250 003e FAD0     		beq	.L12
 143:Core/Src/main.c ****   RCC_OscInitStruct.HSEState = RCC_HSE_ON;
 251              		.loc 1 143 3 is_stmt 1 view .LVU61
 143:Core/Src/main.c ****   RCC_OscInitStruct.HSEState = RCC_HSE_ON;
 252              		.loc 1 143 36 is_stmt 0 view .LVU62
 253 0040 0122     		movs	r2, #1
 254 0042 0992     		str	r2, [sp, #36]
 144:Core/Src/main.c ****   RCC_OscInitStruct.PLL.PLLState = RCC_PLL_ON;
 255              		.loc 1 144 3 is_stmt 1 view .LVU63
 144:Core/Src/main.c ****   RCC_OscInitStruct.PLL.PLLState = RCC_PLL_ON;
 256              		.loc 1 144 30 is_stmt 0 view .LVU64
 257 0044 4FF48033 		mov	r3, #65536
 258 0048 0A93     		str	r3, [sp, #40]
 145:Core/Src/main.c ****   RCC_OscInitStruct.PLL.PLLSource = RCC_PLLSOURCE_HSE;
 259              		.loc 1 145 3 is_stmt 1 view .LVU65
 145:Core/Src/main.c ****   RCC_OscInitStruct.PLL.PLLSource = RCC_PLLSOURCE_HSE;
 260              		.loc 1 145 34 is_stmt 0 view .LVU66
 261 004a 0223     		movs	r3, #2
 262 004c 1293     		str	r3, [sp, #72]
 146:Core/Src/main.c ****   RCC_OscInitStruct.PLL.PLLM = 5;
 263              		.loc 1 146 3 is_stmt 1 view .LVU67
 146:Core/Src/main.c ****   RCC_OscInitStruct.PLL.PLLM = 5;
 264              		.loc 1 146 35 is_stmt 0 view .LVU68
 265 004e 1393     		str	r3, [sp, #76]
 147:Core/Src/main.c ****   RCC_OscInitStruct.PLL.PLLN = 110;
 266              		.loc 1 147 3 is_stmt 1 view .LVU69
 147:Core/Src/main.c ****   RCC_OscInitStruct.PLL.PLLN = 110;
ARM GAS  C:\Users\admin\AppData\Local\Temp\ccsVakyk.s 			page 14


 267              		.loc 1 147 30 is_stmt 0 view .LVU70
 268 0050 0521     		movs	r1, #5
 269 0052 1491     		str	r1, [sp, #80]
 148:Core/Src/main.c ****   RCC_OscInitStruct.PLL.PLLP = 1;
 270              		.loc 1 148 3 is_stmt 1 view .LVU71
 148:Core/Src/main.c ****   RCC_OscInitStruct.PLL.PLLP = 1;
 271              		.loc 1 148 30 is_stmt 0 view .LVU72
 272 0054 6E21     		movs	r1, #110
 273 0056 1591     		str	r1, [sp, #84]
 149:Core/Src/main.c ****   RCC_OscInitStruct.PLL.PLLQ = 2;
 274              		.loc 1 149 3 is_stmt 1 view .LVU73
 149:Core/Src/main.c ****   RCC_OscInitStruct.PLL.PLLQ = 2;
 275              		.loc 1 149 30 is_stmt 0 view .LVU74
 276 0058 1692     		str	r2, [sp, #88]
 150:Core/Src/main.c ****   RCC_OscInitStruct.PLL.PLLR = 2;
 277              		.loc 1 150 3 is_stmt 1 view .LVU75
 150:Core/Src/main.c ****   RCC_OscInitStruct.PLL.PLLR = 2;
 278              		.loc 1 150 30 is_stmt 0 view .LVU76
 279 005a 1793     		str	r3, [sp, #92]
 151:Core/Src/main.c ****   RCC_OscInitStruct.PLL.PLLRGE = RCC_PLL1VCIRANGE_2;
 280              		.loc 1 151 3 is_stmt 1 view .LVU77
 151:Core/Src/main.c ****   RCC_OscInitStruct.PLL.PLLRGE = RCC_PLL1VCIRANGE_2;
 281              		.loc 1 151 30 is_stmt 0 view .LVU78
 282 005c 1893     		str	r3, [sp, #96]
 152:Core/Src/main.c ****   RCC_OscInitStruct.PLL.PLLVCOSEL = RCC_PLL1VCOWIDE;
 283              		.loc 1 152 3 is_stmt 1 view .LVU79
 152:Core/Src/main.c ****   RCC_OscInitStruct.PLL.PLLVCOSEL = RCC_PLL1VCOWIDE;
 284              		.loc 1 152 32 is_stmt 0 view .LVU80
 285 005e 0823     		movs	r3, #8
 286 0060 1993     		str	r3, [sp, #100]
 153:Core/Src/main.c ****   RCC_OscInitStruct.PLL.PLLFRACN = 0;
 287              		.loc 1 153 3 is_stmt 1 view .LVU81
 153:Core/Src/main.c ****   RCC_OscInitStruct.PLL.PLLFRACN = 0;
 288              		.loc 1 153 35 is_stmt 0 view .LVU82
 289 0062 0023     		movs	r3, #0
 290 0064 1A93     		str	r3, [sp, #104]
 154:Core/Src/main.c ****   if (HAL_RCC_OscConfig(&RCC_OscInitStruct) != HAL_OK)
 291              		.loc 1 154 3 is_stmt 1 view .LVU83
 154:Core/Src/main.c ****   if (HAL_RCC_OscConfig(&RCC_OscInitStruct) != HAL_OK)
 292              		.loc 1 154 34 is_stmt 0 view .LVU84
 293 0066 1B93     		str	r3, [sp, #108]
 155:Core/Src/main.c ****   {
 294              		.loc 1 155 3 is_stmt 1 view .LVU85
 155:Core/Src/main.c ****   {
 295              		.loc 1 155 7 is_stmt 0 view .LVU86
 296 0068 09A8     		add	r0, sp, #36
 297 006a FFF7FEFF 		bl	HAL_RCC_OscConfig
 298              	.LVL10:
 155:Core/Src/main.c ****   {
 299              		.loc 1 155 6 view .LVU87
 300 006e A8B9     		cbnz	r0, .L16
 162:Core/Src/main.c ****                               |RCC_CLOCKTYPE_PCLK1|RCC_CLOCKTYPE_PCLK2
 301              		.loc 1 162 3 is_stmt 1 view .LVU88
 162:Core/Src/main.c ****                               |RCC_CLOCKTYPE_PCLK1|RCC_CLOCKTYPE_PCLK2
 302              		.loc 1 162 31 is_stmt 0 view .LVU89
 303 0070 3F23     		movs	r3, #63
 304 0072 0193     		str	r3, [sp, #4]
ARM GAS  C:\Users\admin\AppData\Local\Temp\ccsVakyk.s 			page 15


 165:Core/Src/main.c ****   RCC_ClkInitStruct.SYSCLKDivider = RCC_SYSCLK_DIV1;
 305              		.loc 1 165 3 is_stmt 1 view .LVU90
 165:Core/Src/main.c ****   RCC_ClkInitStruct.SYSCLKDivider = RCC_SYSCLK_DIV1;
 306              		.loc 1 165 34 is_stmt 0 view .LVU91
 307 0074 0321     		movs	r1, #3
 308 0076 0291     		str	r1, [sp, #8]
 166:Core/Src/main.c ****   RCC_ClkInitStruct.AHBCLKDivider = RCC_HCLK_DIV2;
 309              		.loc 1 166 3 is_stmt 1 view .LVU92
 166:Core/Src/main.c ****   RCC_ClkInitStruct.AHBCLKDivider = RCC_HCLK_DIV2;
 310              		.loc 1 166 35 is_stmt 0 view .LVU93
 311 0078 0023     		movs	r3, #0
 312 007a 0393     		str	r3, [sp, #12]
 167:Core/Src/main.c ****   RCC_ClkInitStruct.APB3CLKDivider = RCC_APB3_DIV2;
 313              		.loc 1 167 3 is_stmt 1 view .LVU94
 167:Core/Src/main.c ****   RCC_ClkInitStruct.APB3CLKDivider = RCC_APB3_DIV2;
 314              		.loc 1 167 35 is_stmt 0 view .LVU95
 315 007c 0823     		movs	r3, #8
 316 007e 0493     		str	r3, [sp, #16]
 168:Core/Src/main.c ****   RCC_ClkInitStruct.APB1CLKDivider = RCC_APB1_DIV2;
 317              		.loc 1 168 3 is_stmt 1 view .LVU96
 168:Core/Src/main.c ****   RCC_ClkInitStruct.APB1CLKDivider = RCC_APB1_DIV2;
 318              		.loc 1 168 36 is_stmt 0 view .LVU97
 319 0080 4023     		movs	r3, #64
 320 0082 0593     		str	r3, [sp, #20]
 169:Core/Src/main.c ****   RCC_ClkInitStruct.APB2CLKDivider = RCC_APB2_DIV2;
 321              		.loc 1 169 3 is_stmt 1 view .LVU98
 169:Core/Src/main.c ****   RCC_ClkInitStruct.APB2CLKDivider = RCC_APB2_DIV2;
 322              		.loc 1 169 36 is_stmt 0 view .LVU99
 323 0084 0693     		str	r3, [sp, #24]
 170:Core/Src/main.c ****   RCC_ClkInitStruct.APB4CLKDivider = RCC_APB4_DIV2;
 324              		.loc 1 170 3 is_stmt 1 view .LVU100
 170:Core/Src/main.c ****   RCC_ClkInitStruct.APB4CLKDivider = RCC_APB4_DIV2;
 325              		.loc 1 170 36 is_stmt 0 view .LVU101
 326 0086 4FF48062 		mov	r2, #1024
 327 008a 0792     		str	r2, [sp, #28]
 171:Core/Src/main.c **** 
 328              		.loc 1 171 3 is_stmt 1 view .LVU102
 171:Core/Src/main.c **** 
 329              		.loc 1 171 36 is_stmt 0 view .LVU103
 330 008c 0893     		str	r3, [sp, #32]
 173:Core/Src/main.c ****   {
 331              		.loc 1 173 3 is_stmt 1 view .LVU104
 173:Core/Src/main.c ****   {
 332              		.loc 1 173 7 is_stmt 0 view .LVU105
 333 008e 01A8     		add	r0, sp, #4
 334 0090 FFF7FEFF 		bl	HAL_RCC_ClockConfig
 335              	.LVL11:
 173:Core/Src/main.c ****   {
 336              		.loc 1 173 6 view .LVU106
 337 0094 20B9     		cbnz	r0, .L17
 177:Core/Src/main.c **** 
 338              		.loc 1 177 1 view .LVU107
 339 0096 1DB0     		add	sp, sp, #116
 340              	.LCFI6:
 341              		.cfi_remember_state
 342              		.cfi_def_cfa_offset 4
 343              		@ sp needed
ARM GAS  C:\Users\admin\AppData\Local\Temp\ccsVakyk.s 			page 16


 344 0098 5DF804FB 		ldr	pc, [sp], #4
 345              	.L16:
 346              	.LCFI7:
 347              		.cfi_restore_state
 157:Core/Src/main.c ****   }
 348              		.loc 1 157 5 is_stmt 1 view .LVU108
 349 009c FFF7FEFF 		bl	Error_Handler
 350              	.LVL12:
 351              	.L17:
 175:Core/Src/main.c ****   }
 352              		.loc 1 175 5 view .LVU109
 353 00a0 FFF7FEFF 		bl	Error_Handler
 354              	.LVL13:
 355              	.L19:
 356              		.align	2
 357              	.L18:
 358 00a4 00480258 		.word	1476544512
 359              		.cfi_endproc
 360              	.LFE149:
 362              		.section	.text.main,"ax",%progbits
 363              		.align	1
 364              		.global	main
 365              		.syntax unified
 366              		.thumb
 367              		.thumb_func
 369              	main:
 370              	.LFB148:
  68:Core/Src/main.c **** 
 371              		.loc 1 68 1 view -0
 372              		.cfi_startproc
 373              		@ Volatile: function does not return.
 374              		@ args = 0, pretend = 0, frame = 0
 375              		@ frame_needed = 0, uses_anonymous_args = 0
 376 0000 08B5     		push	{r3, lr}
 377              	.LCFI8:
 378              		.cfi_def_cfa_offset 8
 379              		.cfi_offset 3, -8
 380              		.cfi_offset 14, -4
  75:Core/Src/main.c **** 
 381              		.loc 1 75 3 view .LVU111
 382 0002 FFF7FEFF 		bl	MPU_Config
 383              	.LVL14:
  80:Core/Src/main.c **** 
 384              		.loc 1 80 3 view .LVU112
 385 0006 FFF7FEFF 		bl	HAL_Init
 386              	.LVL15:
  87:Core/Src/main.c **** 
 387              		.loc 1 87 3 view .LVU113
 388 000a FFF7FEFF 		bl	SystemClock_Config
 389              	.LVL16:
  94:Core/Src/main.c ****   /* USER CODE BEGIN 2 */
 390              		.loc 1 94 3 view .LVU114
 391 000e FFF7FEFF 		bl	MX_GPIO_Init
 392              	.LVL17:
 100:Core/Src/main.c **** 
 393              		.loc 1 100 3 view .LVU115
 394 0012 FFF7FEFF 		bl	osKernelInitialize
ARM GAS  C:\Users\admin\AppData\Local\Temp\ccsVakyk.s 			page 17


 395              	.LVL18:
 103:Core/Src/main.c **** 
 396              		.loc 1 103 3 view .LVU116
 397 0016 FFF7FEFF 		bl	MX_FREERTOS_Init
 398              	.LVL19:
 106:Core/Src/main.c **** 
 399              		.loc 1 106 3 view .LVU117
 400 001a FFF7FEFF 		bl	osKernelStart
 401              	.LVL20:
 402              	.L21:
 112:Core/Src/main.c ****   {
 403              		.loc 1 112 3 discriminator 1 view .LVU118
 117:Core/Src/main.c ****   /* USER CODE END 3 */
 404              		.loc 1 117 3 discriminator 1 view .LVU119
 112:Core/Src/main.c ****   {
 405              		.loc 1 112 9 discriminator 1 view .LVU120
 406 001e FEE7     		b	.L21
 407              		.cfi_endproc
 408              	.LFE148:
 410              		.text
 411              	.Letext0:
 412              		.file 3 "c:\\users\\admin\\desktop\\scm\\10 2021.10\\arm-none-eabi\\include\\machine\\_default_typ
 413              		.file 4 "c:\\users\\admin\\desktop\\scm\\10 2021.10\\arm-none-eabi\\include\\sys\\_stdint.h"
 414              		.file 5 "C:/Users/admin/STM32Cube/Repository/STM32Cube_FW_H7_V1.11.1/Drivers/CMSIS/Device/ST/STM32
 415              		.file 6 "C:/Users/admin/STM32Cube/Repository/STM32Cube_FW_H7_V1.11.1/Drivers/STM32H7xx_HAL_Driver/
 416              		.file 7 "C:/Users/admin/STM32Cube/Repository/STM32Cube_FW_H7_V1.11.1/Drivers/STM32H7xx_HAL_Driver/
 417              		.file 8 "C:/Users/admin/STM32Cube/Repository/STM32Cube_FW_H7_V1.11.1/Drivers/STM32H7xx_HAL_Driver/
 418              		.file 9 "C:/Users/admin/STM32Cube/Repository/STM32Cube_FW_H7_V1.11.1/Drivers/STM32H7xx_HAL_Driver/
 419              		.file 10 "C:/Users/admin/STM32Cube/Repository/STM32Cube_FW_H7_V1.11.1/Drivers/STM32H7xx_HAL_Driver
 420              		.file 11 "C:/Users/admin/STM32Cube/Repository/STM32Cube_FW_H7_V1.11.1/Drivers/STM32H7xx_HAL_Driver
 421              		.file 12 "C:/Users/admin/STM32Cube/Repository/STM32Cube_FW_H7_V1.11.1/Drivers/STM32H7xx_HAL_Driver
 422              		.file 13 "Core/Inc/gpio.h"
 423              		.file 14 "C:/Users/admin/STM32Cube/Repository/STM32Cube_FW_H7_V1.11.1/Middlewares/Third_Party/Free
 424              		.file 15 "<built-in>"
ARM GAS  C:\Users\admin\AppData\Local\Temp\ccsVakyk.s 			page 18

